target datalayout = "e-m:e-p270:32:32-p271:32:32-p272:64:64-i64:64-i128:128-f80:128-n8:16:32:64-S128"
target triple = "x86_64-pc-linux-gnu"

%struct.FunctionCallInfoBaseData = type { ptr, ptr, ptr, i32, i8, i16, [0 x %struct.NullableDatum] }
%struct.NullableDatum = type { i64, i8 }

; Function Attrs: inlinehint nounwind uwtable
define internal i64 @PointerGetDatum(ptr noundef %0) #3 {
  %2 = alloca ptr, align 8
  store ptr %0, ptr %2, align 8
  %3 = load ptr, ptr %2, align 8
  %4 = ptrtoint ptr %3 to i64
  ret i64 %4
}

; Function Attrs: inlinehint nounwind uwtable
define internal ptr @DatumGetPointer(i64 noundef %0) #3 {
  %2 = alloca i64, align 8
  store i64 %0, ptr %2, align 8
  %3 = load i64, ptr %2, align 8
  %4 = inttoptr i64 %3 to ptr
  ret ptr %4
}

; Function Attrs: nounwind uwtable
define dso_local i64 @sha224_bytea(ptr noundef %0) #0 {
  %2 = alloca ptr, align 8
  %3 = alloca ptr, align 8
  store ptr %0, ptr %2, align 8
  call void @llvm.lifetime.start.p0(i64 8, ptr %3) #5
  %4 = load ptr, ptr %2, align 8
  %5 = getelementptr inbounds nuw %struct.FunctionCallInfoBaseData, ptr %4, i32 0, i32 6
  %6 = getelementptr inbounds [0 x %struct.NullableDatum], ptr %5, i64 0, i64 0
  %7 = getelementptr inbounds nuw %struct.NullableDatum, ptr %6, i32 0, i32 0
  %8 = load i64, ptr %7, align 8
  %9 = call ptr @DatumGetPointer(i64 noundef %8)
  %10 = call ptr @pg_detoast_datum_packed(ptr noundef %9)
  %11 = call ptr @cryptohash_internal(i32 noundef 2, ptr noundef %10)
  store ptr %11, ptr %3, align 8
  %12 = load ptr, ptr %3, align 8
  %13 = call i64 @PointerGetDatum(ptr noundef %12)
  call void @llvm.lifetime.end.p0(i64 8, ptr %3) #5
  ret i64 %13
}